(dp0
I0
NsI1
NsI2
NsI3
NsI4
NsI5
NsI6
NsI7
NsI8
NsI9
NsI10
NsI11
NsI12
NsI13
NsI14
NsI15
NsI16
NsI17
NsI18
NsI19
NsI20
NsI21
NsI22
NsI23
NsI24
NsI25
NsI26
NsI27
NsI28
NsI29
NsI30
NsI31
NsI32
NsI33
NsI34
NsI35
NsI36
NsI37
NsI38
NsI39
NsI40
NsI41
NsI42
NsI43
NsI44
NsI45
NsI46
NsI47
NsI48
NsI49
NsI50
NsI51
NsI52
NsI53
NsI54
NsI55
NsI56
NsI57
NsI58
NsI59
NsI60
NsI61
NsI62
NsI63
NsI64
NsI65
NsI66
NsI67
NsI68
NsI69
Ns.